Certificate:
    Data:
        Version: 1 (0x0)
        Serial Number: 4660 (0x1234)
        Signature Algorithm: md5WithRSAEncryption
        Issuer: C=US, ST=Some-State, O=DigiCert Inc, OU=www.digicert.com, CN=DigiCert SHA2 Extended Validation Server CA
        Validity
            Not Before: May 10 16:42:35 2021 GMT
            Not After : May 10 16:42:35 2022 GMT
        Subject: C=NO, ST=Some-State, L=Oslo, O=DNB Bank ASA, CN=www.dnb.no
        Subject Public Key Info:
            Public Key Algorithm: dsaEncryption
                pub: 
                    00:b5:26:1b:44:08:de:4d:8d:22:cb:6c:86:e6:13:
                    25:70:00:f7:6e:2e:c4:86:53:6c:f0:aa:57:c1:67:
                    ca:ac:24:73:f5:70:19:e8:4c:32:92:41:c8:fd:b9:
                    af:e2:06:38:3c:7f:bc:60:8a:66:92:38:e4:af:28:
                    9d:13:cc:68:b6:f0:5e:9c:a6:c8:92:32:b6:de:d8:
                    58:dc:1f:2f:a4:a7:94:b4:05:2e:1c:19:90:8e:d5:
                    cd:0f:b2:7a:4d:a1:93:3a:15:70:11:8c:16:96:e5:
                    76:4e:e5:2a:b1:ac:51:b4:8c:87:17:c8:f2:90:10:
                    59:dd:4e:d2:f7:f4:91:09:53:d6:85:67:60:8d:9d:
                    a9:84:49:92:92:bd:e6:32:14:6d:e2:52:39:3c:7c:
                    ed:d2:88:97:1c:c2:c8:5a:7e:7e:a0:d1:c1:0a:e6:
                    38:8c:2b:8f:2b:b6:e9:ca:35:a5:6d:05:eb:32:b8:
                    51:e2:7b:c2:de:04:d8:94:a0:86:3f:64:75:ed:42:
                    c9:25:49:a5:c4:68:a6:71:31:e6:60:bf:bd:f8:0b:
                    dd:f3:49:61:51:86:d8:31:43:61:b6:6e:1d:c7:47:
                    61:d1:a6:19:4d:c5:3e:cc:2a:af:9e:a6:3a:de:b3:
                    2c:b0:c7:5f:53:bc:61:fb:3b:e0:6e:04:f1:48:c6:
                    37:86:76:42:16:98:ce:c0:c6:bb:07:cb:53:8b:35:
                    99:a2:2f:3b:04:58:2e:dd:be:1c:b6:0a:cb:4b:9d:
                    62:65:91:4e:8d:22:50:c6:fc:bc:85:2a:f1:58:06:
                    82:e8:79:23:0d:b6:18:9d:d8:bb:e1:d1:73:87:26:
                    22:e0:57:5b:aa:b9:ba:00:de:9e:1f:3c:41:79:3a:
                    97:45:0f:20:c0:36:dc:90:56:77:9d:fd:97:e6:e6:
                    41:ea:ad:b5:b5:bc:48:65:2d:be:a6:bb:9f:23:9c:
                    83:21:68:fd:3b:3c:05:25:53:4a:44:5a:8c:78:ae:
                    6a:af:21:e8:ca:20:b9:12:a2:3e
                P:   
                    00:b5:45:02:9f:52:ae:a2:07:bf:73:ac:ad:3d:e2:
                    38:15:6a:76:5d:82:f1:0d:a4:3e:ef:63:22:96:95:
                    1a:5c:1b:8b:cb:0b:1b:4d:d7:aa:8c:72:6c:5e:f9:
                    ae:19:c2:63:af:f4:6c:33:8d:ba:5d:76:b9:ec:18:
                    cc:d0:02:25:fb:31:e9:b1:12:45:cb:9a:bf:d6:83:
                    65:8a:73:7a:71:65:d0:3a:1e:d2:e8:95:45:eb:e7:
                    a6:f4:a3:fc:41:dd:d9:cb:37:5d:d4:26:bc:87:15:
                    1c:cb:62:1b:92:52:5f:b4:6f:47:96:fb:31:db:ee:
                    62:f9:e7:05:bc:7d:98:3f:7c:ff:5b:0c:2d:4e:c3:
                    35:bd:ea:e5:6f:c4:0f:fb:b4:d5:fd:dc:75:63:43:
                    82:95:4f:f7:11:66:9b:36:28:c1:51:a4:63:6a:91:
                    6e:2a:f0:ba:a4:b8:37:c6:9d:00:12:1b:ea:d2:4c:
                    c1:7b:0d:b1:67:7a:2e:ef:fe:75:7a:00:e4:09:c1:
                    e4:ed:62:af:fb:2b:55:86:43:6c:44:a1:d9:4e:5e:
                    64:00:8d:3c:33:5f:95:f1:7c:5e:db:5e:20:1e:de:
                    9c:7f:ab:ba:a9:93:1c:03:6c:d5:91:f7:b0:5d:a0:
                    83:e6:b9:15:df:9c:dd:fc:02:51:ca:5b:52:05:31:
                    df:32:95:38:79:a9:89:80:32:b5:f3:69:ae:b7:8c:
                    c9:6e:dd:62:e3:9b:76:9d:36:3c:be:63:54:e7:7b:
                    23:94:31:45:49:f5:0d:77:81:62:68:ca:cd:0e:6f:
                    c2:14:35:c6:ce:65:14:7b:b3:1f:a5:f2:4b:ea:f8:
                    9f:00:8c:7f:0d:84:14:79:f5:9a:51:2b:eb:22:4c:
                    b4:b5:05:4b:ab:45:ff:e2:ef:ec:10:86:61:49:91:
                    a5:c4:f1:95:ab:2e:3d:00:48:98:9f:2f:f6:0e:c5:
                    7f:de:14:bb:c6:40:af:12:d8:d3:26:b3:f9:d4:42:
                    78:b9:6e:60:8b:d5:7a:f8:d1:fb
                Q:   
                    00:a4:04:d0:74:da:f4:cb:8c:75:ab:ea:db:dc:67:
                    36:05:a4:68:e6:4c:79:fe:59:4e:32:37:f3:da:06:
                    df:36:75
                G:   
                    3e:2e:5b:1a:12:25:a6:4d:9b:c7:22:83:1c:74:b0:
                    ca:db:8b:12:53:f4:c3:b8:47:3c:48:f0:1a:a0:1b:
                    bf:d6:72:61:5e:c8:06:5f:53:38:29:b9:30:07:5a:
                    cd:c2:e5:74:0f:11:47:30:12:d0:5b:11:81:be:4d:
                    6c:1c:28:86:4c:f3:dc:fd:40:fb:99:f0:71:cf:f7:
                    ef:8d:20:a9:ac:08:8c:04:a1:72:cf:3a:d3:f7:1d:
                    75:71:1f:46:af:ad:46:cd:d8:c9:d5:49:87:3f:4c:
                    cd:f3:48:81:af:cc:1d:13:03:81:20:e7:6d:87:67:
                    ba:cb:8a:82:45:9e:08:9a:82:28:e2:ec:01:85:a5:
                    48:c0:41:3d:85:ff:f0:98:41:3f:3d:1c:a1:79:8f:
                    77:b1:67:84:8e:c5:d1:d1:01:0b:5f:63:54:8c:08:
                    c7:97:f5:73:19:43:26:fd:c3:6c:88:e7:e7:70:ce:
                    c3:b2:a0:a7:f8:42:4d:51:a0:bf:43:49:25:79:8a:
                    1f:13:5f:79:e4:d9:1e:32:1e:ba:c8:4a:85:8f:f7:
                    9c:bc:8c:6b:ba:5b:e6:fd:e4:e1:19:b7:df:2f:b9:
                    9b:f8:00:77:f2:d5:6c:67:1a:96:29:0d:85:a2:08:
                    a4:1a:79:1b:78:7f:b8:16:85:f7:17:dd:20:e1:6f:
                    75:9b:b4:86:b3:35:ed:45:4c:61:49:69:4e:b4:08:
                    5d:0c:30:d2:4a:2c:fd:ce:cc:b0:94:c5:a9:ae:41:
                    66:7f:91:8b:1c:4b:2e:eb:66:93:49:5a:13:b9:1b:
                    da:48:f7:75:6d:6b:d7:56:52:e4:45:23:4f:ec:d6:
                    d0:a3:07:a6:81:d9:19:81:e9:f8:93:88:21:b5:61:
                    4c:6f:1d:26:40:53:32:e8:24:7c:d6:a7:5b:14:33:
                    b0:d1:70:26:7d:3c:f2:ce:03:f1:8e:0a:44:c6:b2:
                    05:19:a6:70:db:32:f9:84:1a:72:63:f6:6d:59:b7:
                    b5:19:a3:0c:af:41:79:1e:f3
    Signature Algorithm: md5WithRSAEncryption
         b8:c7:e0:37:b1:0d:8e:18:05:32:a9:83:4c:58:8e:36:4f:d9:
         67:8c:9f:e3:3b:85:76:7b:05:ec:64:c7:58:2b:1c:63:64:5a:
         15:62:eb:5c:17:14:c3:74:2e:a7:ca:e0:81:d9:bd:af:a3:1f:
         6b:9b:c5:1f:be:7e:f3:1e:4a:4b:52:49:1b:4b:0a:5d:a6:85:
         30:e5:d3:07:95:04:3f:cd:3f:84:80:a9:0a:23:89:e3:62:3f:
         6a:7b:4e:14:7c:f6:1c:56:97:11:bf:9d:1e:d5:e2:0e:b6:fc:
         5a:47:48:f8:9c:f9:d7:99:47:ac:26:a1:38:42:c9:43:87:a2:
         4f:5d:94:47:12:e5:05:50:8d:19:22:2d:9d:17:e4:07:e3:c8:
         b2:06:3b:ed:3a:e8:33:3d:aa:60:a4:f0:a4:8c:7d:ec:4b:2e:
         58:bc:17:ef:53:31:d9:8e:cc:9a:ed:7a:3c:f9:92:1d:ce:99:
         c8:82:e1:4d:9b:db:69:a4:e4:bb:a5:ed:d7:82:54:4b:9d:5a:
         a2:8e:fb:32:2f:7a:9b:4d:92:18:c1:bb:16:44:43:21:37:fa:
         2a:24:72:7c:90:e8:c2:c3:5a:15:cd:26:cc:ad:b7:95:f7:fc:
         1d:74:b2:18:73:d7:7e:82:01:d3:ed:39:f5:fb:c0:c5:4e:2a:
         0d:87:b3:df:41:42:5a:42:b7:33:f5:9b:0b:6f:a6:0d:6e:f7:
         98:e8:ad:c0:3d:13:6d:ec:8c:2f:53:35:2d:04:36:cf:01:2c:
         a0:30:56:41:fe:da:fb:29:67:bd:6b:79:cb:60:14:ec:7f:1f:
         96:64:f7:9a:42:7a:05:f3:2a:30:c5:d2:23:c2:23:0d:90:79:
         5f:90:ab:3e:0f:79:65:89:62:d7:7e:50:7f:6e:29:5b:26:b4:
         ae:ec:54:ac:4f:ab:b0:c1:04:96:7d:4f:bb:02:5e:86:d3:a6:
         77:38:94:a3:70:20:5b:9e:e4:a6:15:73:8b:b2:3b:30:2f:cf:
         63:b5:da:e5:70:19
-----BEGIN CERTIFICATE-----
MIIHgjCCBeoCAhI0MA0GCSqGSIb3DQEBBAUAMIGKMQswCQYDVQQGEwJVUzETMBEG
A1UECAwKU29tZS1TdGF0ZTEVMBMGA1UECgwMRGlnaUNlcnQgSW5jMRkwFwYDVQQL
DBB3d3cuZGlnaWNlcnQuY29tMTQwMgYDVQQDDCtEaWdpQ2VydCBTSEEyIEV4dGVu
ZGVkIFZhbGlkYXRpb24gU2VydmVyIENBMB4XDTIxMDUxMDE2NDIzNVoXDTIyMDUx
MDE2NDIzNVowXTELMAkGA1UEBhMCTk8xEzARBgNVBAgMClNvbWUtU3RhdGUxDTAL
BgNVBAcMBE9zbG8xFTATBgNVBAoMDEROQiBCYW5rIEFTQTETMBEGA1UEAwwKd3d3
LmRuYi5ubzCCBMcwggM5BgcqhkjOOAQBMIIDLAKCAYEAtUUCn1Kuoge/c6ytPeI4
FWp2XYLxDaQ+72MilpUaXBuLywsbTdeqjHJsXvmuGcJjr/RsM426XXa57BjM0AIl
+zHpsRJFy5q/1oNlinN6cWXQOh7S6JVF6+em9KP8Qd3Zyzdd1Ca8hxUcy2IbklJf
tG9Hlvsx2+5i+ecFvH2YP3z/WwwtTsM1verlb8QP+7TV/dx1Y0OClU/3EWabNijB
UaRjapFuKvC6pLg3xp0AEhvq0kzBew2xZ3ou7/51egDkCcHk7WKv+ytVhkNsRKHZ
Tl5kAI08M1+V8Xxe214gHt6cf6u6qZMcA2zVkfewXaCD5rkV35zd/AJRyltSBTHf
MpU4eamJgDK182mut4zJbt1i45t2nTY8vmNU53sjlDFFSfUNd4FiaMrNDm/CFDXG
zmUUe7MfpfJL6vifAIx/DYQUefWaUSvrIky0tQVLq0X/4u/sEIZhSZGlxPGVqy49
AEiYny/2DsV/3hS7xkCvEtjTJrP51EJ4uW5gi9V6+NH7AiEApATQdNr0y4x1q+rb
3Gc2BaRo5kx5/llOMjfz2gbfNnUCggGAPi5bGhIlpk2bxyKDHHSwytuLElP0w7hH
PEjwGqAbv9ZyYV7IBl9TOCm5MAdazcLldA8RRzAS0FsRgb5NbBwohkzz3P1A+5nw
cc/3740gqawIjAShcs860/cddXEfRq+tRs3YydVJhz9MzfNIga/MHRMDgSDnbYdn
usuKgkWeCJqCKOLsAYWlSMBBPYX/8JhBPz0coXmPd7FnhI7F0dEBC19jVIwIx5f1
cxlDJv3DbIjn53DOw7Kgp/hCTVGgv0NJJXmKHxNfeeTZHjIeushKhY/3nLyMa7pb
5v3k4Rm33y+5m/gAd/LVbGcalikNhaIIpBp5G3h/uBaF9xfdIOFvdZu0hrM17UVM
YUlpTrQIXQww0kos/c7MsJTFqa5BZn+RixxLLutmk0laE7kb2kj3dW1r11ZS5EUj
T+zW0KMHpoHZGYHp+JOIIbVhTG8dJkBTMugkfNanWxQzsNFwJn088s4D8Y4KRMay
BRmmcNsy+YQacmP2bVm3tRmjDK9BeR7zA4IBhgACggGBALUmG0QI3k2NIstshuYT
JXAA924uxIZTbPCqV8Fnyqwkc/VwGehMMpJByP25r+IGODx/vGCKZpI45K8onRPM
aLbwXpymyJIytt7YWNwfL6SnlLQFLhwZkI7VzQ+yek2hkzoVcBGMFpbldk7lKrGs
UbSMhxfI8pAQWd1O0vf0kQlT1oVnYI2dqYRJkpK95jIUbeJSOTx87dKIlxzCyFp+
fqDRwQrmOIwrjyu26co1pW0F6zK4UeJ7wt4E2JSghj9kde1CySVJpcRopnEx5mC/
vfgL3fNJYVGG2DFDYbZuHcdHYdGmGU3FPswqr56mOt6zLLDHX1O8Yfs74G4E8UjG
N4Z2QhaYzsDGuwfLU4s1maIvOwRYLt2+HLYKy0udYmWRTo0iUMb8vIUq8VgGguh5
Iw22GJ3Yu+HRc4cmIuBXW6q5ugDenh88QXk6l0UPIMA23JBWd539l+bmQeqttbW8
SGUtvqa7nyOcgyFo/Ts8BSVTSkRajHiuaq8h6MoguRKiPjANBgkqhkiG9w0BAQQF
AAOCAYEAuMfgN7ENjhgFMqmDTFiONk/ZZ4yf4zuFdnsF7GTHWCscY2RaFWLrXBcU
w3Qup8rggdm9r6Mfa5vFH75+8x5KS1JJG0sKXaaFMOXTB5UEP80/hICpCiOJ42I/
antOFHz2HFaXEb+dHtXiDrb8WkdI+Jz515lHrCahOELJQ4eiT12URxLlBVCNGSIt
nRfkB+PIsgY77TroMz2qYKTwpIx97EsuWLwX71Mx2Y7Mmu16PPmSHc6ZyILhTZvb
aaTku6Xt14JUS51aoo77Mi96m02SGMG7FkRDITf6KiRyfJDowsNaFc0mzK23lff8
HXSyGHPXfoIB0+059fvAxU4qDYez30FCWkK3M/WbC2+mDW73mOitwD0TbeyML1M1
LQQ2zwEsoDBWQf7a+ylnvWt5y2AU7H8flmT3mkJ6BfMqMMXSI8IjDZB5X5CrPg95
ZYli135Qf24pWya0ruxUrE+rsMEEln1PuwJehtOmdziUo3AgW57kphVzi7I7MC/P
Y7Xa5XAZ
-----END CERTIFICATE-----
