Certificate:
    Data:
        Version: 1 (0x0)
        Serial Number: 4660 (0x1234)
        Signature Algorithm: md5WithRSAEncryption
        Issuer: C=NO, ST=Vestland, L=Bergen, O=UiB, OU=Department of Informatics, CN=svo007/emailAddress=sigmundvolden@gmail.com
        Validity
            Not Before: May 10 15:15:49 2021 GMT
            Not After : May 10 15:15:49 2022 GMT
        Subject: C=NO, ST=Vestland, L=Bergen, O=UiB, OU=Department of Informatics, CN=svo/emailAddress=@
        Subject Public Key Info:
            Public Key Algorithm: dsaEncryption
                pub: 
                    00:ad:f5:b5:b1:e4:19:76:a0:1c:79:6c:3c:d5:bb:
                    cd:b0:a4:bf:22:35:e9:c1:f5:59:1c:58:e1:2d:a5:
                    29:a4:d1:57:39:55:80:d0:5c:d6:6d:bb:cb:15:02:
                    c8:db:cc:91:3d:23:1b:1c:f2:97:42:8a:48:0e:33:
                    d0:97:0a:5a:e1:19:d4:a4:ac:4d:02:c2:80:c7:75:
                    7b:4a:a3:ff:5d:05:04:1d:63:96:61:66:bf:30:d6:
                    68:da:fe:a8:e3:cc:42:39:9a:86:d3:25:1a:1a:28:
                    3b:20:49:8f:1d:a4:65:aa:01:22:35:6f:4f:7e:6d:
                    12:a7:19:28:a5:fb:49:11:c3:03:d6:67:ad:33:43:
                    4b:a7:d0:2a:68:a9:73:da:17:db:92:a5:44:e0:44:
                    c6:bf:ad:bc:75:c8:03:b3:79:16:9c:53:be:c2:5a:
                    76:53:c7:21:02:b4:d4:17:d6:fe:c7:72:ae:2b:e3:
                    57:f4:08:d4:7d:55:da:03:9f:0f:69:93:02:e1:d0:
                    25:62:e3:6e:fd:60:51:8e:3e:80:94:4f:6c:57:36:
                    7f:f6:a5:8d:95:ca:7e:c2:fe:55:cb:5a:2d:18:68:
                    06:87:5f:a7:a5:52:d0:b5:a7:a6:5b:0f:8a:40:28:
                    f9:ac:90:d0:3a:37:7d:25:6c:01:d7:2c:5b:aa:96:
                    cd:a1:2e:86:d4:d4:af:57:84:52:ca:6c:10:83:d4:
                    44:00:81:01:00:15:ec:13:43:97:cc:96:3a:72:e7:
                    71:16:ad:d8:95:7b:26:27:67:36:a6:a6:5a:6a:51:
                    f1:af:ac:79:e6:3f:60:a7:7a:24:c1:91:8c:ef:8b:
                    e1:a9:7f:48:44:0c:66:57:58:bf:20:af:8f:33:a6:
                    bd:4b:1e:2c:42:d7:b0:37:20:0d:e7:15:c3:7a:8e:
                    c7:44:38:e1:7d:bd:d4:40:67:1d:fd:d3:17:1b:b6:
                    58:18:77:30:7a:e8:8a:99:73:60:90:8b:c9:25:cb:
                    8c:40:4a:73:97:b7:36:ab:99:48
                P:   
                    00:e6:0e:13:14:95:a1:a4:a7:87:f5:f8:e9:c8:b4:
                    44:a1:cb:44:bd:5b:6a:cb:5d:21:5c:07:a0:8d:00:
                    e1:1b:36:21:46:e3:ce:2e:dc:80:4e:f6:13:1d:d7:
                    8e:b7:6f:bf:70:22:57:2e:14:b7:f9:04:9b:2d:66:
                    4c:15:ac:f2:b9:65:b6:fb:cb:43:9a:4a:a4:da:6b:
                    ee:de:5a:0b:1d:4d:96:05:0f:43:14:77:7f:11:1a:
                    1e:47:0e:a6:5a:65:de:b1:56:46:9f:6b:a0:0e:00:
                    d5:db:64:43:83:ba:7f:b9:6a:b1:25:42:cf:81:91:
                    23:57:f0:b2:0c:b3:4d:16:91:d8:9d:9d:ef:5a:46:
                    90:e4:b5:a2:5a:49:b1:78:9a:2c:45:b6:9d:26:04:
                    81:42:3e:ea:65:ae:02:88:f8:db:81:92:43:02:ae:
                    a7:1a:78:73:75:e4:68:c0:24:43:c1:95:5e:2e:82:
                    f1:58:73:8f:c1:6f:f5:02:f1:c4:3d:37:71:6d:c2:
                    33:05:16:2b:8a:db:63:e4:70:13:58:cf:c0:25:c3:
                    29:d4:c4:3f:b8:0c:f2:42:47:eb:3c:a3:02:e9:ed:
                    b5:17:99:fd:c2:6e:1f:4b:1c:92:78:e1:a5:25:9b:
                    12:2d:79:c7:69:13:76:b2:3b:83:fb:59:21:85:52:
                    3c:60:10:cb:f5:0a:a9:9a:fb:6b:73:56:cf:fc:b7:
                    b2:c7:dd:2c:84:4e:dd:e2:e3:2f:cc:a8:74:cd:4c:
                    0a:29:9f:a0:73:01:5a:89:3a:a3:94:0b:a1:cd:9e:
                    13:ae:a0:73:f8:2a:01:86:89:75:f1:1a:42:53:67:
                    fe:38:5b:93:26:9b:48:08:f3:91:9f:36:f6:c8:c2:
                    39:a3:aa:d0:b4:71:87:c4:a6:b5:9e:e0:7d:63:66:
                    d4:f9:49:16:e9:e6:05:00:06:95:0d:fa:52:f9:40:
                    8a:e5:f0:7e:6b:71:11:db:82:71:e7:86:7e:3a:da:
                    2b:6d:37:60:e2:eb:c5:59:71:9d
                Q:   
                    00:fe:71:e1:1b:f3:48:d2:db:fe:99:d2:cd:1c:d3:
                    da:96:8d:c5:fd:88:d4:03:20:b8:e0:1f:01:d3:9e:
                    a5:b7:e5
                G:   
                    63:e3:a0:5b:53:e1:b6:6d:b0:54:e0:6d:17:ed:1e:
                    a5:6c:fe:e3:53:52:8c:d1:ff:c7:21:ba:13:92:f6:
                    4d:c2:e1:4b:e3:3e:f6:4c:bc:1d:85:a1:31:b4:96:
                    47:2e:58:d9:4b:b5:20:86:ef:f8:28:4c:f6:8e:c4:
                    f5:23:63:0a:ee:ad:5b:7a:19:1d:5b:dc:13:e9:76:
                    b0:47:b5:68:f6:9e:cf:48:94:e3:10:45:c0:5e:70:
                    4b:7a:ec:a5:a3:07:7a:8f:42:ac:4c:a6:9d:eb:83:
                    23:41:be:63:3a:5e:8f:59:7a:f4:a3:13:ae:0e:aa:
                    f4:84:54:a3:69:2c:82:65:c5:2b:14:50:4e:e7:6d:
                    70:2e:eb:7e:ad:b0:7e:b3:45:3b:1c:15:64:5d:6f:
                    3b:a6:a4:34:13:b0:01:c3:ca:40:10:1a:ca:95:2d:
                    d6:a2:d7:a8:4c:13:16:55:92:71:c1:0a:55:5b:d4:
                    4b:c8:75:53:94:64:7a:74:08:ac:fb:10:93:a9:38:
                    a3:bb:35:67:c6:14:fc:c1:72:70:93:50:05:3b:bc:
                    3b:06:53:d1:70:19:6a:59:58:fa:0b:9b:df:58:f8:
                    5a:6b:6d:83:c6:3e:0d:b2:03:b1:92:b8:cb:f6:49:
                    bc:76:11:13:09:bb:2d:f0:99:a2:b2:97:b8:b1:2c:
                    44:f0:31:65:8f:5f:9a:35:81:28:b8:d9:19:f6:57:
                    84:05:6a:4f:4c:e1:58:9b:df:7e:7e:4d:da:b9:ab:
                    af:8e:fa:56:5b:bf:3f:4f:0d:9b:19:2e:da:b0:bd:
                    92:b9:a3:8c:09:67:c8:f2:60:ed:65:b2:a7:28:f2:
                    ec:fe:44:3d:44:4e:ab:e4:a1:ed:c7:7d:be:68:fa:
                    d8:b9:3b:85:e9:bb:8d:06:a1:06:7a:b8:a8:87:ee:
                    f1:b4:9e:e9:15:8a:27:b9:24:e1:b2:c9:93:a9:fa:
                    9e:7a:9a:e6:63:e2:a3:41:bb:33:74:f2:06:8b:8f:
                    13:8c:c1:ec:80:24:4c:3d:65
    Signature Algorithm: md5WithRSAEncryption
         61:e2:8b:b0:95:75:87:06:7a:04:2d:15:0a:74:1d:d4:63:9c:
         74:55:d8:19:aa:35:0b:5c:47:62:2d:4b:ca:b5:92:fa:3c:0d:
         38:1d:a1:cb:83:c4:26:e4:2c:21:23:7f:8f:f2:ec:35:a8:cc:
         b2:34:41:0f:5e:52:be:ec:a9:e1:ad:ca:27:10:9d:1e:c0:fa:
         09:ec:3f:5e:c0:70:eb:de:00:a3:37:df:46:b4:55:7b:13:40:
         aa:77:12:27:4a:6a:84:0b:5e:7d:59:cb:03:e7:7f:e6:0a:06:
         4b:65:9b:b4:47:60:b9:31:58:f5:df:f3:c5:0c:26:61:d0:85:
         ef:52:8e:6f:61:94:2c:32:25:25:a0:26:48:22:82:61:70:2a:
         35:ed:74:6a:d6:44:b4:c7:85:84:0e:73:00:30:f4:a6:10:e9:
         ae:d7:bf:c9:cf:84:53:49:2b:bc:4c:f6:ec:6c:b3:0d:a5:e0:
         d3:64:4d:fd:06:a8:d9:d0:0b:d6:36:ba:dd:05:ad:26:f9:8a:
         14:5d:06:e7:aa:f7:b3:df:cc:8c:05:48:3e:44:10:64:ad:0f:
         03:fb:1f:44:ab:0b:cb:49:b9:8c:e3:b5:13:8a:3f:91:ea:1b:
         be:d6:5c:45:d7:35:2f:6b:03:90:5e:1e:10:58:c6:59:e9:63:
         3d:fb:d2:36:66:bc:77:51:e1:d8:bd:3a:36:ff:ec:1c:09:65:
         98:df:3e:b8:46:7e:74:69:d2:d4:49:36:b4:86:ed:f0:ae:e1:
         4d:73:9f:fd:3c:ab:90:8b:b5:c1:c9:fe:83:2c:94:9d:73:98:
         d0:e7:bc:e4:ef:c7:bc:b0:4c:f4:17:a4:4a:34:be:d9:6a:0c:
         48:a0:02:ef:64:9d:ba:4c:62:81:0f:ff:aa:d6:84:2f:ca:89:
         45:63:d9:48:3a:6f:7e:c2:87:8e:50:4c:0e:6b:ed:5d:fc:d2:
         22:92:53:ae:ef:9a:3c:71:95:30:f0:a2:09:bf:1f:62:89:fd:
         99:7b:26:c3:d8:24
-----BEGIN CERTIFICATE-----
MIIHuzCCBiMCAhI0MA0GCSqGSIb3DQEBBAUAMIGcMQswCQYDVQQGEwJOTzERMA8G
A1UECAwIVmVzdGxhbmQxDzANBgNVBAcMBkJlcmdlbjEMMAoGA1UECgwDVWlCMSIw
IAYDVQQLDBlEZXBhcnRtZW50IG9mIEluZm9ybWF0aWNzMQ8wDQYDVQQDDAZzdm8w
MDcxJjAkBgkqhkiG9w0BCQEWF3NpZ211bmR2b2xkZW5AZ21haWwuY29tMB4XDTIx
MDUxMDE1MTU0OVoXDTIyMDUxMDE1MTU0OVowgYMxCzAJBgNVBAYTAk5PMREwDwYD
VQQIDAhWZXN0bGFuZDEPMA0GA1UEBwwGQmVyZ2VuMQwwCgYDVQQKDANVaUIxIjAg
BgNVBAsMGURlcGFydG1lbnQgb2YgSW5mb3JtYXRpY3MxDDAKBgNVBAMMA3N2bzEQ
MA4GCSqGSIb3DQEJARYBQDCCBMcwggM5BgcqhkjOOAQBMIIDLAKCAYEA5g4TFJWh
pKeH9fjpyLREoctEvVtqy10hXAegjQDhGzYhRuPOLtyATvYTHdeOt2+/cCJXLhS3
+QSbLWZMFazyuWW2+8tDmkqk2mvu3loLHU2WBQ9DFHd/ERoeRw6mWmXesVZGn2ug
DgDV22RDg7p/uWqxJULPgZEjV/CyDLNNFpHYnZ3vWkaQ5LWiWkmxeJosRbadJgSB
Qj7qZa4CiPjbgZJDAq6nGnhzdeRowCRDwZVeLoLxWHOPwW/1AvHEPTdxbcIzBRYr
ittj5HATWM/AJcMp1MQ/uAzyQkfrPKMC6e21F5n9wm4fSxySeOGlJZsSLXnHaRN2
sjuD+1khhVI8YBDL9Qqpmvtrc1bP/Leyx90shE7d4uMvzKh0zUwKKZ+gcwFaiTqj
lAuhzZ4TrqBz+CoBhol18RpCU2f+OFuTJptICPORnzb2yMI5o6rQtHGHxKa1nuB9
Y2bU+UkW6eYFAAaVDfpS+UCK5fB+a3ER24Jx54Z+OtorbTdg4uvFWXGdAiEA/nHh
G/NI0tv+mdLNHNPalo3F/YjUAyC44B8B056lt+UCggGAY+OgW1Phtm2wVOBtF+0e
pWz+41NSjNH/xyG6E5L2TcLhS+M+9ky8HYWhMbSWRy5Y2Uu1IIbv+ChM9o7E9SNj
Cu6tW3oZHVvcE+l2sEe1aPaez0iU4xBFwF5wS3rspaMHeo9CrEymneuDI0G+Yzpe
j1l69KMTrg6q9IRUo2ksgmXFKxRQTudtcC7rfq2wfrNFOxwVZF1vO6akNBOwAcPK
QBAaypUt1qLXqEwTFlWSccEKVVvUS8h1U5RkenQIrPsQk6k4o7s1Z8YU/MFycJNQ
BTu8OwZT0XAZallY+gub31j4Wmttg8Y+DbIDsZK4y/ZJvHYREwm7LfCZorKXuLEs
RPAxZY9fmjWBKLjZGfZXhAVqT0zhWJvffn5N2rmrr476Vlu/P08Nmxku2rC9krmj
jAlnyPJg7WWypyjy7P5EPUROq+Sh7cd9vmj62Lk7hem7jQahBnq4qIfu8bSe6RWK
J7kk4bLJk6n6nnqa5mPio0G7M3TyBouPE4zB7IAkTD1lA4IBhgACggGBAK31tbHk
GXagHHlsPNW7zbCkvyI16cH1WRxY4S2lKaTRVzlVgNBc1m27yxUCyNvMkT0jGxzy
l0KKSA4z0JcKWuEZ1KSsTQLCgMd1e0qj/10FBB1jlmFmvzDWaNr+qOPMQjmahtMl
GhooOyBJjx2kZaoBIjVvT35tEqcZKKX7SRHDA9ZnrTNDS6fQKmipc9oX25KlROBE
xr+tvHXIA7N5FpxTvsJadlPHIQK01BfW/sdyrivjV/QI1H1V2gOfD2mTAuHQJWLj
bv1gUY4+gJRPbFc2f/aljZXKfsL+VctaLRhoBodfp6VS0LWnplsPikAo+ayQ0Do3
fSVsAdcsW6qWzaEuhtTUr1eEUspsEIPURACBAQAV7BNDl8yWOnLncRat2JV7Jidn
NqamWmpR8a+seeY/YKd6JMGRjO+L4al/SEQMZldYvyCvjzOmvUseLELXsDcgDecV
w3qOx0Q44X291EBnHf3TFxu2WBh3MHroiplzYJCLySXLjEBKc5e3NquZSDANBgkq
hkiG9w0BAQQFAAOCAYEAYeKLsJV1hwZ6BC0VCnQd1GOcdFXYGao1C1xHYi1LyrWS
+jwNOB2hy4PEJuQsISN/j/LsNajMsjRBD15Svuyp4a3KJxCdHsD6Cew/XsBw694A
ozffRrRVexNAqncSJ0pqhAtefVnLA+d/5goGS2WbtEdguTFY9d/zxQwmYdCF71KO
b2GULDIlJaAmSCKCYXAqNe10atZEtMeFhA5zADD0phDprte/yc+EU0krvEz27Gyz
DaXg02RN/Qao2dAL1ja63QWtJvmKFF0G56r3s9/MjAVIPkQQZK0PA/sfRKsLy0m5
jOO1E4o/keobvtZcRdc1L2sDkF4eEFjGWeljPfvSNma8d1Hh2L06Nv/sHAllmN8+
uEZ+dGnS1Ek2tIbt8K7hTXOf/TyrkIu1wcn+gyyUnXOY0Oe85O/HvLBM9BekSjS+
2WoMSKAC72SdukxigQ//qtaEL8qJRWPZSDpvfsKHjlBMDmvtXfzSIpJTru+aPHGV
MPCiCb8fYon9mXsmw9gk
-----END CERTIFICATE-----
